target datalayout = "e-m:e-p270:32:32-p271:32:32-p272:64:64-i64:64-i128:128-f80:128-n8:16:32:64-S128"
target triple = "x86_64-unknown-linux-gnu"

%class.symbol = type { ptr }
%"class.smt::setup" = type <{ ptr, ptr, ptr, %class.symbol, i8, [7 x i8] }>
%class.u_map = type { %class.map }
%class.map = type { %class.table2map }
%class.table2map = type { %class.core_hashtable.8 }
%class.core_hashtable.8 = type <{ ptr, i32, i32, i32, [4 x i8] }>
%class.obj_map.23 = type { %class.core_hashtable.24 }
%class.core_hashtable.24 = type <{ ptr, i32, i32, i32, [4 x i8] }>
%class.ptr_vector.56 = type { %class.vector.57 }
%class.vector.57 = type { ptr }
%class.svector.86 = type { %class.vector.87 }
%class.vector.87 = type { ptr }
%class.svector.4 = type { %class.vector.5 }
%class.vector.5 = type { ptr }
%class.svector.268 = type { %class.vector.269 }
%class.vector.269 = type { ptr }
%class.obj_map.159 = type { %class.core_hashtable.160 }
%class.core_hashtable.160 = type <{ ptr, i32, i32, i32, [4 x i8] }>
%class.ast_manager = type { %class.reslimit, %class.small_object_allocator, %class.family_manager, %class.parray_manager, %class.dependency_manager, %class.parray_manager.303, %class.ptr_vector.306, i32, i8, %class.ast_table, %class.obj_map.23, %class.id_gen, %class.id_gen, ptr, ptr, ptr, ptr, ptr, i32, i8, [3 x i8], %class.u_map, ptr, i8, i8, ptr, %class.symbol, %class.obj_map.159, ptr }
%class.reslimit = type { %"struct.std::atomic", i8, i64, i64, %class.svector.268, %class.ptr_vector.294 }
%"struct.std::atomic" = type { %"struct.std::__atomic_base" }
%"struct.std::__atomic_base" = type { i32 }
%class.ptr_vector.294 = type { %class.vector.295 }
%class.vector.295 = type { ptr }
%class.small_object_allocator = type { [32 x ptr], [32 x ptr], i64 }
%class.family_manager = type { i32, %class.symbol_table, %class.svector.299 }
%class.symbol_table = type { %class.core_hashtable.296, %class.vector.298, %class.svector.86 }
%class.core_hashtable.296 = type <{ ptr, i32, i32, i32, [4 x i8] }>
%class.vector.298 = type { ptr }
%class.svector.299 = type { %class.vector.300 }
%class.vector.300 = type { ptr }
%class.parray_manager = type { ptr, ptr, %class.ptr_vector.301, %class.ptr_vector.301 }
%class.ptr_vector.301 = type { %class.vector.302 }
%class.vector.302 = type { ptr }
%class.dependency_manager = type { ptr, ptr, %class.ptr_vector.56 }
%class.parray_manager.303 = type { ptr, ptr, %class.ptr_vector.304, %class.ptr_vector.304 }
%class.ptr_vector.304 = type { %class.vector.305 }
%class.vector.305 = type { ptr }
%class.ptr_vector.306 = type { %class.vector.307 }
%class.vector.307 = type { ptr }
%class.ast_table = type { %class.chashtable.308 }
%class.chashtable.308 = type { ptr, i32, i32, i32, i32, i32, i32, i32, ptr, ptr, ptr }
%class.id_gen = type { i32, %class.svector.4 }

; Function Attrs: mustprogress nounwind uwtable
define linkonce_odr hidden noundef zeroext i1 @_ZNK11ast_manager13has_type_varsEv(ptr noundef nonnull align 8 dereferenceable(976) %this) #4 comdat align 2 {
entry:
  %this.addr = alloca ptr, align 8
  store ptr %this, ptr %this.addr, align 8
  %this1 = load ptr, ptr %this.addr, align 8
  %m_has_type_vars = getelementptr inbounds %class.ast_manager, ptr %this1, i32 0, i32 24
  %0 = load i8, ptr %m_has_type_vars, align 1
  %tobool = trunc i8 %0 to i1
  ret i1 %tobool
}

; Function Attrs: mustprogress uwtable
define hidden void @_ZN3smt5setup18setup_polymorphismEv(ptr noundef nonnull align 8 dereferenceable(33) %this) #5 align 2 {
entry:
  %this.addr = alloca ptr, align 8
  store ptr %this, ptr %this.addr, align 8
  %this1 = load ptr, ptr %this.addr, align 8
  %m_manager = getelementptr inbounds %"class.smt::setup", ptr %this1, i32 0, i32 1
  %0 = load ptr, ptr %m_manager, align 8
  %call = call noundef zeroext i1 @_ZNK11ast_manager13has_type_varsEv(ptr noundef nonnull align 8 dereferenceable(976) %0)
  br i1 %call, label %if.then, label %if.end

if.then:                                          ; preds = %entry
  %m_context = getelementptr inbounds %"class.smt::setup", ptr %this1, i32 0, i32 0
  %1 = load ptr, ptr %m_context, align 8
  %call2 = call noalias noundef ptr @_ZN6memory8allocateEm(i64 noundef 400)
  %m_context3 = getelementptr inbounds %"class.smt::setup", ptr %this1, i32 0, i32 0
  %2 = load ptr, ptr %m_context3, align 8
  call void @_ZN3smt19theory_polymorphismC2ERNS_7contextE(ptr noundef nonnull align 8 dereferenceable(397) %call2, ptr noundef nonnull align 8 dereferenceable(11616) %2)
  call void @_ZN3smt7context15register_pluginEPNS_6theoryE(ptr noundef nonnull align 8 dereferenceable(11616) %1, ptr noundef %call2)
  br label %if.end

if.end:                                           ; preds = %if.then, %entry
  ret void
}