; Function Attrs: mustprogress uwtable
define hidden void @_ZN3smt5setup18setup_polymorphismEv(ptr nocapture noundef nonnull readonly align 8 dereferenceable(33) %this) local_unnamed_addr #4 align 2 {
entry:
  %m_manager = getelementptr inbounds i8, ptr %this, i64 8
  %0 = load ptr, ptr %m_manager, align 8
  %m_has_type_vars.i = getelementptr inbounds i8, ptr %0, i64 921
  %1 = load i8, ptr %m_has_type_vars.i, align 1
  %2 = and i8 %1, 1
  %tobool.i.not = icmp eq i8 %2, 0
  br i1 %tobool.i.not, label %if.end, label %if.then

if.then:                                          ; preds = %entry
  %3 = load ptr, ptr %this, align 8
  %call2 = tail call noalias noundef ptr @_ZN6memory8allocateEm(i64 noundef 400)
  %4 = load ptr, ptr %this, align 8
  tail call void @_ZN3smt19theory_polymorphismC2ERNS_7contextE(ptr noundef nonnull align 8 dereferenceable(397) %call2, ptr noundef nonnull align 8 dereferenceable(11616) %4)
  tail call void @_ZN3smt7context15register_pluginEPNS_6theoryE(ptr noundef nonnull align 8 dereferenceable(11616) %3, ptr noundef nonnull %call2)
  br label %if.end

if.end:                                           ; preds = %if.then, %entry
  ret void
}